target datalayout = "e-m:e-p270:32:32-p271:32:32-p272:64:64-i64:64-i128:128-f80:128-n8:16:32:64-S128"
target triple = "x86_64-pc-linux-gnu"

%"class.cv::Mat" = type { i32, i32, i32, i32, ptr, ptr, ptr, ptr, ptr, ptr, %"struct.cv::MatSize", %"struct.cv::MatStep" }
%"struct.cv::MatSize" = type { ptr }
%"struct.cv::MatStep" = type { ptr, [2 x i64] }
%"class.cv::Rect_" = type { i32, i32, i32, i32 }

; Function Attrs: inlinehint mustprogress nounwind uwtable
define linkonce_odr hidden noundef nonnull align 4 dereferenceable(4) ptr @_ZNK2cv3Mat2atIfEERKT_ii(ptr noundef nonnull align 8 dereferenceable(96) %0, i32 noundef %1, i32 noundef %2) #10 comdat align 2 {
  %4 = alloca ptr, align 8
  %5 = alloca i32, align 4
  %6 = alloca i32, align 4
  store ptr %0, ptr %4, align 8, !tbaa !68
  store i32 %1, ptr %5, align 4, !tbaa !42
  store i32 %2, ptr %6, align 4, !tbaa !42
  %7 = load ptr, ptr %4, align 8
  %8 = getelementptr inbounds nuw %"class.cv::Mat", ptr %7, i32 0, i32 4
  %9 = load ptr, ptr %8, align 8, !tbaa !78
  %10 = getelementptr inbounds nuw %"class.cv::Mat", ptr %7, i32 0, i32 11
  %11 = getelementptr inbounds nuw %"struct.cv::MatStep", ptr %10, i32 0, i32 0
  %12 = load ptr, ptr %11, align 8, !tbaa !79
  %13 = getelementptr inbounds i64, ptr %12, i64 0
  %14 = load i64, ptr %13, align 8, !tbaa !80
  %15 = load i32, ptr %5, align 4, !tbaa !42
  %16 = sext i32 %15 to i64
  %17 = mul i64 %14, %16
  %18 = getelementptr inbounds nuw i8, ptr %9, i64 %17
  %19 = load i32, ptr %6, align 4, !tbaa !42
  %20 = sext i32 %19 to i64
  %21 = getelementptr inbounds float, ptr %18, i64 %20
  ret ptr %21
}

; Function Attrs: inlinehint mustprogress nounwind uwtable
define linkonce_odr hidden noundef nonnull align 8 dereferenceable(8) ptr @_ZNK2cv3Mat2atIdEERKT_ii(ptr noundef nonnull align 8 dereferenceable(96) %0, i32 noundef %1, i32 noundef %2) #10 comdat align 2 {
  %4 = alloca ptr, align 8
  %5 = alloca i32, align 4
  %6 = alloca i32, align 4
  store ptr %0, ptr %4, align 8, !tbaa !68
  store i32 %1, ptr %5, align 4, !tbaa !42
  store i32 %2, ptr %6, align 4, !tbaa !42
  %7 = load ptr, ptr %4, align 8
  %8 = getelementptr inbounds nuw %"class.cv::Mat", ptr %7, i32 0, i32 4
  %9 = load ptr, ptr %8, align 8, !tbaa !78
  %10 = getelementptr inbounds nuw %"class.cv::Mat", ptr %7, i32 0, i32 11
  %11 = getelementptr inbounds nuw %"struct.cv::MatStep", ptr %10, i32 0, i32 0
  %12 = load ptr, ptr %11, align 8, !tbaa !79
  %13 = getelementptr inbounds i64, ptr %12, i64 0
  %14 = load i64, ptr %13, align 8, !tbaa !80
  %15 = load i32, ptr %5, align 4, !tbaa !42
  %16 = sext i32 %15 to i64
  %17 = mul i64 %14, %16
  %18 = getelementptr inbounds nuw i8, ptr %9, i64 %17
  %19 = load i32, ptr %6, align 4, !tbaa !42
  %20 = sext i32 %19 to i64
  %21 = getelementptr inbounds double, ptr %18, i64 %20
  ret ptr %21
}

; Function Attrs: inlinehint mustprogress nounwind uwtable
define linkonce_odr hidden noundef nonnull align 4 dereferenceable(4) ptr @_ZNK2cv3Mat2atIiEERKT_ii(ptr noundef nonnull align 8 dereferenceable(96) %0, i32 noundef %1, i32 noundef %2) #10 comdat align 2 {
  %4 = alloca ptr, align 8
  %5 = alloca i32, align 4
  %6 = alloca i32, align 4
  store ptr %0, ptr %4, align 8, !tbaa !68
  store i32 %1, ptr %5, align 4, !tbaa !42
  store i32 %2, ptr %6, align 4, !tbaa !42
  %7 = load ptr, ptr %4, align 8
  %8 = getelementptr inbounds nuw %"class.cv::Mat", ptr %7, i32 0, i32 4
  %9 = load ptr, ptr %8, align 8, !tbaa !78
  %10 = getelementptr inbounds nuw %"class.cv::Mat", ptr %7, i32 0, i32 11
  %11 = getelementptr inbounds nuw %"struct.cv::MatStep", ptr %10, i32 0, i32 0
  %12 = load ptr, ptr %11, align 8, !tbaa !79
  %13 = getelementptr inbounds i64, ptr %12, i64 0
  %14 = load i64, ptr %13, align 8, !tbaa !80
  %15 = load i32, ptr %5, align 4, !tbaa !42
  %16 = sext i32 %15 to i64
  %17 = mul i64 %14, %16
  %18 = getelementptr inbounds nuw i8, ptr %9, i64 %17
  %19 = load i32, ptr %6, align 4, !tbaa !42
  %20 = sext i32 %19 to i64
  %21 = getelementptr inbounds i32, ptr %18, i64 %20
  ret ptr %21
}

; Function Attrs: inlinehint mustprogress nounwind uwtable
define linkonce_odr hidden noundef i32 @_ZNK2cv3Mat5depthEv(ptr noundef nonnull align 8 dereferenceable(96) %0) #10 comdat align 2 {
  %2 = alloca ptr, align 8
  store ptr %0, ptr %2, align 8, !tbaa !68
  %3 = load ptr, ptr %2, align 8
  %4 = getelementptr inbounds nuw %"class.cv::Mat", ptr %3, i32 0, i32 0
  %5 = load i32, ptr %4, align 8, !tbaa !168
  %6 = and i32 %5, 7
  ret i32 %6
}

; Function Attrs: mustprogress uwtable
define hidden noundef float @_ZNK2cv6detail8tracking15contrib_feature15CvHaarEvaluator11FeatureHaar6getSumERKNS_3MatENS_5Rect_IiEE(ptr noundef nonnull align 8 dereferenceable(136) %0, ptr noundef nonnull align 8 dereferenceable(96) %1, i64 %2, i64 %3) #4 align 2 {
  %5 = alloca %"class.cv::Rect_", align 4
  %6 = alloca ptr, align 8
  %7 = alloca ptr, align 8
  %8 = alloca i32, align 4
  %9 = alloca i32, align 4
  %10 = alloca i32, align 4
  %11 = alloca i32, align 4
  %12 = alloca float, align 4
  %13 = alloca i32, align 4
  %14 = getelementptr inbounds nuw { i64, i64 }, ptr %5, i32 0, i32 0
  store i64 %2, ptr %14, align 4
  %15 = getelementptr inbounds nuw { i64, i64 }, ptr %5, i32 0, i32 1
  store i64 %3, ptr %15, align 4
  store ptr %0, ptr %6, align 8, !tbaa !123
  store ptr %1, ptr %7, align 8, !tbaa !68
  call void @llvm.lifetime.start.p0(i64 4, ptr %8) #3
  %16 = getelementptr inbounds nuw %"class.cv::Rect_", ptr %5, i32 0, i32 0
  %17 = load i32, ptr %16, align 4, !tbaa !138
  store i32 %17, ptr %8, align 4, !tbaa !42
  call void @llvm.lifetime.start.p0(i64 4, ptr %9) #3
  %18 = getelementptr inbounds nuw %"class.cv::Rect_", ptr %5, i32 0, i32 1
  %19 = load i32, ptr %18, align 4, !tbaa !140
  store i32 %19, ptr %9, align 4, !tbaa !42
  call void @llvm.lifetime.start.p0(i64 4, ptr %10) #3
  %20 = getelementptr inbounds nuw %"class.cv::Rect_", ptr %5, i32 0, i32 2
  %21 = load i32, ptr %20, align 4, !tbaa !141
  store i32 %21, ptr %10, align 4, !tbaa !42
  call void @llvm.lifetime.start.p0(i64 4, ptr %11) #3
  %22 = getelementptr inbounds nuw %"class.cv::Rect_", ptr %5, i32 0, i32 3
  %23 = load i32, ptr %22, align 4, !tbaa !142
  store i32 %23, ptr %11, align 4, !tbaa !42
  %24 = load i32, ptr %8, align 4, !tbaa !42
  %25 = load i32, ptr %10, align 4, !tbaa !42
  %26 = add nsw i32 %24, %25
  %27 = load ptr, ptr %7, align 8, !tbaa !68
  %28 = getelementptr inbounds nuw %"class.cv::Mat", ptr %27, i32 0, i32 3
  %29 = load i32, ptr %28, align 4, !tbaa !71
  %30 = sub nsw i32 %29, 1
  %31 = icmp sge i32 %26, %30
  br i1 %31, label %32, label %39

32:                                               ; preds = %4
  %33 = load ptr, ptr %7, align 8, !tbaa !68
  %34 = getelementptr inbounds nuw %"class.cv::Mat", ptr %33, i32 0, i32 3
  %35 = load i32, ptr %34, align 4, !tbaa !71
  %36 = sub nsw i32 %35, 1
  %37 = load i32, ptr %8, align 4, !tbaa !42
  %38 = sub nsw i32 %36, %37
  store i32 %38, ptr %10, align 4, !tbaa !42
  br label %39

39:                                               ; preds = %32, %4
  %40 = load i32, ptr %9, align 4, !tbaa !42
  %41 = load i32, ptr %11, align 4, !tbaa !42
  %42 = add nsw i32 %40, %41
  %43 = load ptr, ptr %7, align 8, !tbaa !68
  %44 = getelementptr inbounds nuw %"class.cv::Mat", ptr %43, i32 0, i32 2
  %45 = load i32, ptr %44, align 8, !tbaa !73
  %46 = sub nsw i32 %45, 1
  %47 = icmp sge i32 %42, %46
  br i1 %47, label %48, label %55

48:                                               ; preds = %39
  %49 = load ptr, ptr %7, align 8, !tbaa !68
  %50 = getelementptr inbounds nuw %"class.cv::Mat", ptr %49, i32 0, i32 2
  %51 = load i32, ptr %50, align 8, !tbaa !73
  %52 = sub nsw i32 %51, 1
  %53 = load i32, ptr %9, align 4, !tbaa !42
  %54 = sub nsw i32 %52, %53
  store i32 %54, ptr %11, align 4, !tbaa !42
  br label %55

55:                                               ; preds = %48, %39
  call void @llvm.lifetime.start.p0(i64 4, ptr %12) #3
  store float 0.000000e+00, ptr %12, align 4, !tbaa !76
  call void @llvm.lifetime.start.p0(i64 4, ptr %13) #3
  %56 = load ptr, ptr %7, align 8, !tbaa !68
  %57 = call noundef i32 @_ZNK2cv3Mat5depthEv(ptr noundef nonnull align 8 dereferenceable(96) %56)
  store i32 %57, ptr %13, align 4, !tbaa !42
  %58 = load i32, ptr %13, align 4, !tbaa !42
  %59 = icmp eq i32 %58, 0
  br i1 %59, label %63, label %60

60:                                               ; preds = %55
  %61 = load i32, ptr %13, align 4, !tbaa !42
  %62 = icmp eq i32 %61, 4
  br i1 %62, label %63, label %96

63:                                               ; preds = %60, %55
  %64 = load ptr, ptr %7, align 8, !tbaa !68
  %65 = load i32, ptr %9, align 4, !tbaa !42
  %66 = load i32, ptr %11, align 4, !tbaa !42
  %67 = add nsw i32 %65, %66
  %68 = load i32, ptr %8, align 4, !tbaa !42
  %69 = load i32, ptr %10, align 4, !tbaa !42
  %70 = add nsw i32 %68, %69
  %71 = call noundef nonnull align 4 dereferenceable(4) ptr @_ZNK2cv3Mat2atIiEERKT_ii(ptr noundef nonnull align 8 dereferenceable(96) %64, i32 noundef %67, i32 noundef %70)
  %72 = load i32, ptr %71, align 4, !tbaa !42
  %73 = load ptr, ptr %7, align 8, !tbaa !68
  %74 = load i32, ptr %9, align 4, !tbaa !42
  %75 = load i32, ptr %8, align 4, !tbaa !42
  %76 = call noundef nonnull align 4 dereferenceable(4) ptr @_ZNK2cv3Mat2atIiEERKT_ii(ptr noundef nonnull align 8 dereferenceable(96) %73, i32 noundef %74, i32 noundef %75)
  %77 = load i32, ptr %76, align 4, !tbaa !42
  %78 = add nsw i32 %72, %77
  %79 = load ptr, ptr %7, align 8, !tbaa !68
  %80 = load i32, ptr %9, align 4, !tbaa !42
  %81 = load i32, ptr %8, align 4, !tbaa !42
  %82 = load i32, ptr %10, align 4, !tbaa !42
  %83 = add nsw i32 %81, %82
  %84 = call noundef nonnull align 4 dereferenceable(4) ptr @_ZNK2cv3Mat2atIiEERKT_ii(ptr noundef nonnull align 8 dereferenceable(96) %79, i32 noundef %80, i32 noundef %83)
  %85 = load i32, ptr %84, align 4, !tbaa !42
  %86 = sub nsw i32 %78, %85
  %87 = load ptr, ptr %7, align 8, !tbaa !68
  %88 = load i32, ptr %9, align 4, !tbaa !42
  %89 = load i32, ptr %11, align 4, !tbaa !42
  %90 = add nsw i32 %88, %89
  %91 = load i32, ptr %8, align 4, !tbaa !42
  %92 = call noundef nonnull align 4 dereferenceable(4) ptr @_ZNK2cv3Mat2atIiEERKT_ii(ptr noundef nonnull align 8 dereferenceable(96) %87, i32 noundef %90, i32 noundef %91)
  %93 = load i32, ptr %92, align 4, !tbaa !42
  %94 = sub nsw i32 %86, %93
  %95 = sitofp i32 %94 to float
  store float %95, ptr %12, align 4, !tbaa !76
  br label %169

96:                                               ; preds = %60
  %97 = load i32, ptr %13, align 4, !tbaa !42
  %98 = icmp eq i32 %97, 6
  br i1 %98, label %99, label %132

99:                                               ; preds = %96
  %100 = load ptr, ptr %7, align 8, !tbaa !68
  %101 = load i32, ptr %9, align 4, !tbaa !42
  %102 = load i32, ptr %11, align 4, !tbaa !42
  %103 = add nsw i32 %101, %102
  %104 = load i32, ptr %8, align 4, !tbaa !42
  %105 = load i32, ptr %10, align 4, !tbaa !42
  %106 = add nsw i32 %104, %105
  %107 = call noundef nonnull align 8 dereferenceable(8) ptr @_ZNK2cv3Mat2atIdEERKT_ii(ptr noundef nonnull align 8 dereferenceable(96) %100, i32 noundef %103, i32 noundef %106)
  %108 = load double, ptr %107, align 8, !tbaa !166
  %109 = load ptr, ptr %7, align 8, !tbaa !68
  %110 = load i32, ptr %9, align 4, !tbaa !42
  %111 = load i32, ptr %8, align 4, !tbaa !42
  %112 = call noundef nonnull align 8 dereferenceable(8) ptr @_ZNK2cv3Mat2atIdEERKT_ii(ptr noundef nonnull align 8 dereferenceable(96) %109, i32 noundef %110, i32 noundef %111)
  %113 = load double, ptr %112, align 8, !tbaa !166
  %114 = fadd double %108, %113
  %115 = load ptr, ptr %7, align 8, !tbaa !68
  %116 = load i32, ptr %9, align 4, !tbaa !42
  %117 = load i32, ptr %8, align 4, !tbaa !42
  %118 = load i32, ptr %10, align 4, !tbaa !42
  %119 = add nsw i32 %117, %118
  %120 = call noundef nonnull align 8 dereferenceable(8) ptr @_ZNK2cv3Mat2atIdEERKT_ii(ptr noundef nonnull align 8 dereferenceable(96) %115, i32 noundef %116, i32 noundef %119)
  %121 = load double, ptr %120, align 8, !tbaa !166
  %122 = fsub double %114, %121
  %123 = load ptr, ptr %7, align 8, !tbaa !68
  %124 = load i32, ptr %9, align 4, !tbaa !42
  %125 = load i32, ptr %11, align 4, !tbaa !42
  %126 = add nsw i32 %124, %125
  %127 = load i32, ptr %8, align 4, !tbaa !42
  %128 = call noundef nonnull align 8 dereferenceable(8) ptr @_ZNK2cv3Mat2atIdEERKT_ii(ptr noundef nonnull align 8 dereferenceable(96) %123, i32 noundef %126, i32 noundef %127)
  %129 = load double, ptr %128, align 8, !tbaa !166
  %130 = fsub double %122, %129
  %131 = fptrunc double %130 to float
  store float %131, ptr %12, align 4, !tbaa !76
  br label %168

132:                                              ; preds = %96
  %133 = load i32, ptr %13, align 4, !tbaa !42
  %134 = icmp eq i32 %133, 5
  br i1 %134, label %135, label %167

135:                                              ; preds = %132
  %136 = load ptr, ptr %7, align 8, !tbaa !68
  %137 = load i32, ptr %9, align 4, !tbaa !42
  %138 = load i32, ptr %11, align 4, !tbaa !42
  %139 = add nsw i32 %137, %138
  %140 = load i32, ptr %8, align 4, !tbaa !42
  %141 = load i32, ptr %10, align 4, !tbaa !42
  %142 = add nsw i32 %140, %141
  %143 = call noundef nonnull align 4 dereferenceable(4) ptr @_ZNK2cv3Mat2atIfEERKT_ii(ptr noundef nonnull align 8 dereferenceable(96) %136, i32 noundef %139, i32 noundef %142)
  %144 = load float, ptr %143, align 4, !tbaa !76
  %145 = load ptr, ptr %7, align 8, !tbaa !68
  %146 = load i32, ptr %9, align 4, !tbaa !42
  %147 = load i32, ptr %8, align 4, !tbaa !42
  %148 = call noundef nonnull align 4 dereferenceable(4) ptr @_ZNK2cv3Mat2atIfEERKT_ii(ptr noundef nonnull align 8 dereferenceable(96) %145, i32 noundef %146, i32 noundef %147)
  %149 = load float, ptr %148, align 4, !tbaa !76
  %150 = fadd float %144, %149
  %151 = load ptr, ptr %7, align 8, !tbaa !68
  %152 = load i32, ptr %9, align 4, !tbaa !42
  %153 = load i32, ptr %8, align 4, !tbaa !42
  %154 = load i32, ptr %10, align 4, !tbaa !42
  %155 = add nsw i32 %153, %154
  %156 = call noundef nonnull align 4 dereferenceable(4) ptr @_ZNK2cv3Mat2atIfEERKT_ii(ptr noundef nonnull align 8 dereferenceable(96) %151, i32 noundef %152, i32 noundef %155)
  %157 = load float, ptr %156, align 4, !tbaa !76
  %158 = fsub float %150, %157
  %159 = load ptr, ptr %7, align 8, !tbaa !68
  %160 = load i32, ptr %9, align 4, !tbaa !42
  %161 = load i32, ptr %11, align 4, !tbaa !42
  %162 = add nsw i32 %160, %161
  %163 = load i32, ptr %8, align 4, !tbaa !42
  %164 = call noundef nonnull align 4 dereferenceable(4) ptr @_ZNK2cv3Mat2atIfEERKT_ii(ptr noundef nonnull align 8 dereferenceable(96) %159, i32 noundef %162, i32 noundef %163)
  %165 = load float, ptr %164, align 4, !tbaa !76
  %166 = fsub float %158, %165
  store float %166, ptr %12, align 4, !tbaa !76
  br label %167

167:                                              ; preds = %135, %132
  br label %168

168:                                              ; preds = %167, %99
  br label %169

169:                                              ; preds = %168, %63
  %170 = load float, ptr %12, align 4, !tbaa !76
  call void @llvm.lifetime.end.p0(i64 4, ptr %13) #3
  call void @llvm.lifetime.end.p0(i64 4, ptr %12) #3
  call void @llvm.lifetime.end.p0(i64 4, ptr %11) #3
  call void @llvm.lifetime.end.p0(i64 4, ptr %10) #3
  call void @llvm.lifetime.end.p0(i64 4, ptr %9) #3
  call void @llvm.lifetime.end.p0(i64 4, ptr %8) #3
  ret float %170
}